Certificate:
    Data:
        Version: 3 (0x2)
        Serial Number: 2 (0x2)
        Signature Algorithm: sha1WithRSAEncryption
        Issuer: C=AU, ST=NSW, L=Sydney, O=SIS, CN=pardiff.com/emailAddress=support@pardiff.com
        Validity
            Not Before: Feb 15 12:48:37 2010 GMT
            Not After : Feb 13 12:48:37 2020 GMT
        Subject: C=US, ST=CA, L=SanFrancisco, O=Fort-Funston, CN=test-user/emailAddress=me@myhost.mydomain
        Subject Public Key Info:
            Public Key Algorithm: rsaEncryption
            RSA Public Key: (1024 bit)
                Modulus (1024 bit):
                    00:94:e5:f3:d3:3c:86:5f:75:9e:48:a9:cb:9c:ff:
                    9b:2b:41:c3:55:f0:82:5a:ef:b7:d1:92:04:3a:74:
                    1d:69:5e:47:9b:5c:14:60:32:92:9c:83:6c:79:7d:
                    87:e0:2b:9a:9c:d5:97:71:9c:e2:56:1e:51:fa:58:
                    b7:0d:f0:4f:50:e7:d4:91:34:69:ab:9b:a2:c4:8d:
                    0a:07:b2:b3:bc:f7:25:df:21:f6:f2:5c:9c:08:eb:
                    70:88:14:02:3b:f0:f3:9a:a3:9d:f2:38:ac:06:25:
                    57:ff:8b:1e:5c:de:2a:6d:a0:b5:3a:bb:67:cc:67:
                    29:fe:ee:d1:37:eb:66:01:1f
                Exponent: 65537 (0x10001)
        X509v3 extensions:
            X509v3 Basic Constraints: 
                CA:FALSE
            Netscape Comment: 
                Easy-RSA Generated Certificate
            X509v3 Subject Key Identifier: 
                31:9D:A4:07:01:A7:27:8A:50:D0:5F:DB:FC:A3:C9:70:A8:69:A5:76
            X509v3 Authority Key Identifier: 
                keyid:BF:3B:BE:27:D5:8F:91:E8:04:92:34:1A:33:7B:91:50:C4:63:3E:C2
                DirName:/C=AU/ST=NSW/L=Sydney/O=SIS/CN=pardiff.com/emailAddress=support@pardiff.com
                serial:D4:31:38:7B:0B:F1:79:42

            X509v3 Extended Key Usage: 
                TLS Web Client Authentication
            X509v3 Key Usage: 
                Digital Signature
    Signature Algorithm: sha1WithRSAEncryption
        bb:4b:68:6d:ff:05:5f:7f:5f:c0:a7:19:ed:c6:d4:84:5e:58:
        1d:1d:cf:ec:33:4d:15:fb:52:f0:cf:d5:7e:6d:be:31:2c:8a:
        80:25:06:95:0f:b7:37:37:04:7c:94:79:8f:08:95:b4:1c:02:
        d8:fb:df:2b:8e:a3:3c:00:fa:5c:23:94:8a:95:81:c2:08:df:
        b7:60:0a:c1:d9:7e:8a:e4:76:94:35:aa:ef:73:56:03:8d:ee:
        55:9a:7c:62:0e:07:6e:24:92:87:7c:c7:9a:a0:b1:61:10:e1:
        b5:8e:0a:9b:22:fd:68:30:a3:5b:8c:a0:2a:1c:82:72:7c:e8:
        db:34
-----BEGIN CERTIFICATE-----
MIIDkzCCAvygAwIBAgIBAjANBgkqhkiG9w0BAQUFADB0MQswCQYDVQQGEwJBVTEM
MAoGA1UECBMDTlNXMQ8wDQYDVQQHEwZTeWRuZXkxDDAKBgNVBAoTA1NJUzEUMBIG
A1UEAxMLcGFyZGlmZi5jb20xIjAgBgkqhkiG9w0BCQEWE3N1cHBvcnRAcGFyZGlm
Zi5jb20wHhcNMTAwMjE1MTI0ODM3WhcNMjAwMjEzMTI0ODM3WjB/MQswCQYDVQQG
EwJVUzELMAkGA1UECBMCQ0ExFTATBgNVBAcTDFNhbkZyYW5jaXNjbzEVMBMGA1UE
ChMMRm9ydC1GdW5zdG9uMRIwEAYDVQQDEwl0ZXN0LXVzZXIxITAfBgkqhkiG9w0B
CQEWEm1lQG15aG9zdC5teWRvbWFpbjCBnzANBgkqhkiG9w0BAQEFAAOBjQAwgYkC
gYEAlOXz0zyGX3WeSKnLnP+bK0HDVfCCWu+30ZIEOnQdaV5Hm1wUYDKSnINseX2H
4CuanNWXcZziVh5R+li3DfBPUOfUkTRpq5uixI0KB7KzvPcl3yH28lycCOtwiBQC
O/DzmqOd8jisBiVX/4seXN4qbaC1OrtnzGcp/u7RN+tmAR8CAwEAAaOCASgwggEk
MAkGA1UdEwQCMAAwLQYJYIZIAYb4QgENBCAWHkVhc3ktUlNBIEdlbmVyYXRlZCBD
ZXJ0aWZpY2F0ZTAdBgNVHQ4EFgQUMZ2kBwGnJ4pQ0F/b/KPJcKhppXYwgaYGA1Ud
IwSBnjCBm4AUvzu+J9WPkegEkjQaM3uRUMRjPsKheKR2MHQxCzAJBgNVBAYTAkFV
MQwwCgYDVQQIEwNOU1cxDzANBgNVBAcTBlN5ZG5leTEMMAoGA1UEChMDU0lTMRQw
EgYDVQQDEwtwYXJkaWZmLmNvbTEiMCAGCSqGSIb3DQEJARYTc3VwcG9ydEBwYXJk
aWZmLmNvbYIJANQxOHsL8XlCMBMGA1UdJQQMMAoGCCsGAQUFBwMCMAsGA1UdDwQE
AwIHgDANBgkqhkiG9w0BAQUFAAOBgQC7S2ht/wVff1/ApxntxtSEXlgdHc/sM00V
+1Lwz9V+bb4xLIqAJQaVD7c3NwR8lHmPCJW0HALY+98rjqM8APpcI5SKlYHCCN+3
YArB2X6K5HaUNarvc1YDje5VmnxiDgduJJKHfMeaoLFhEOG1jgqbIv1oMKNbjKAq
HIJyfOjbNA==
-----END CERTIFICATE-----
