Certificate:
    Data:
        Version: 3 (0x2)
        Serial Number: 2 (0x2)
        Signature Algorithm: sha1WithRSAEncryption
        Issuer: C=US, ST=CA, L=SanFrancisco, O=Fort-Funston, CN=Fort-Funston CA/emailAddress=me@myhost.mydomain
        Validity
            Not Before: Feb 15 12:15:09 2010 GMT
            Not After : Feb 13 12:15:09 2020 GMT
        Subject: C=US, ST=CA, L=SanFrancisco, O=Fort-Funston, CN=client/emailAddress=me@myhost.mydomain
        Subject Public Key Info:
            Public Key Algorithm: rsaEncryption
            RSA Public Key: (1024 bit)
                Modulus (1024 bit):
                    00:a6:0f:5d:56:bd:5b:eb:13:87:67:d8:f1:42:f5:
                    bd:36:cb:f4:dd:12:c7:63:56:64:77:32:38:4b:af:
                    68:71:8e:55:b3:26:c1:95:52:e6:2f:62:73:6d:b5:
                    24:ad:4e:01:f8:5c:db:e9:70:99:bf:23:de:31:04:
                    ec:9c:73:13:c5:29:a1:41:6b:47:99:76:40:a2:eb:
                    43:f3:6b:84:92:b1:70:c5:5a:7f:3a:9d:9a:7c:17:
                    4d:f5:75:fa:fd:29:9c:92:e3:db:70:82:ee:00:37:
                    d9:4f:81:11:29:30:5b:88:90:d6:a5:41:a1:7b:ac:
                    44:08:2a:1f:b0:af:d9:94:15
                Exponent: 65537 (0x10001)
        X509v3 extensions:
            X509v3 Basic Constraints: 
                CA:FALSE
            Netscape Comment: 
                Easy-RSA Generated Certificate
            X509v3 Subject Key Identifier: 
                ED:BB:C2:44:C2:94:10:95:97:1B:BE:E9:AC:22:09:AE:01:9D:FB:44
            X509v3 Authority Key Identifier: 
                keyid:8D:B6:1A:71:64:41:7B:86:B2:AD:BA:2C:35:5D:80:7A:B0:83:85:3E
                DirName:/C=US/ST=CA/L=SanFrancisco/O=Fort-Funston/CN=Fort-Funston CA/emailAddress=me@myhost.mydomain
                serial:B7:4F:CD:6C:8D:7C:1C:25

            X509v3 Extended Key Usage: 
                TLS Web Client Authentication
            X509v3 Key Usage: 
                Digital Signature
    Signature Algorithm: sha1WithRSAEncryption
        4a:d4:d5:f7:9d:2f:da:45:a7:00:be:b7:c2:ad:0f:bd:aa:af:
        fa:00:57:e3:1c:73:e8:56:89:01:00:c7:86:1d:1c:d6:a9:78:
        f1:bb:b5:fc:2e:0a:fd:7b:79:29:a0:8d:2b:ce:93:71:d9:3b:
        93:cf:1d:4c:1c:2a:00:41:c7:76:35:d5:ef:23:00:82:58:15:
        bc:75:7d:31:98:3a:f8:f1:00:ae:78:f4:e0:34:5f:53:c0:46:
        27:df:a1:54:ef:c4:12:1d:46:8e:e0:68:cc:4d:de:02:c4:d5:
        12:28:4f:2b:05:33:15:75:14:5e:94:76:3e:2a:20:67:97:a6:
        9d:4f
-----BEGIN CERTIFICATE-----
MIIDtjCCAx+gAwIBAgIBAjANBgkqhkiG9w0BAQUFADCBhTELMAkGA1UEBhMCVVMx
CzAJBgNVBAgTAkNBMRUwEwYDVQQHEwxTYW5GcmFuY2lzY28xFTATBgNVBAoTDEZv
cnQtRnVuc3RvbjEYMBYGA1UEAxMPRm9ydC1GdW5zdG9uIENBMSEwHwYJKoZIhvcN
AQkBFhJtZUBteWhvc3QubXlkb21haW4wHhcNMTAwMjE1MTIxNTA5WhcNMjAwMjEz
MTIxNTA5WjB8MQswCQYDVQQGEwJVUzELMAkGA1UECBMCQ0ExFTATBgNVBAcTDFNh
bkZyYW5jaXNjbzEVMBMGA1UEChMMRm9ydC1GdW5zdG9uMQ8wDQYDVQQDEwZjbGll
bnQxITAfBgkqhkiG9w0BCQEWEm1lQG15aG9zdC5teWRvbWFpbjCBnzANBgkqhkiG
9w0BAQEFAAOBjQAwgYkCgYEApg9dVr1b6xOHZ9jxQvW9Nsv03RLHY1ZkdzI4S69o
cY5VsybBlVLmL2JzbbUkrU4B+Fzb6XCZvyPeMQTsnHMTxSmhQWtHmXZAoutD82uE
krFwxVp/Op2afBdN9XX6/SmckuPbcILuADfZT4ERKTBbiJDWpUGhe6xECCofsK/Z
lBUCAwEAAaOCATwwggE4MAkGA1UdEwQCMAAwLQYJYIZIAYb4QgENBCAWHkVhc3kt
UlNBIEdlbmVyYXRlZCBDZXJ0aWZpY2F0ZTAdBgNVHQ4EFgQU7bvCRMKUEJWXG77p
rCIJrgGd+0QwgboGA1UdIwSBsjCBr4AUjbYacWRBe4ayrbosNV2AerCDhT6hgYuk
gYgwgYUxCzAJBgNVBAYTAlVTMQswCQYDVQQIEwJDQTEVMBMGA1UEBxMMU2FuRnJh
bmNpc2NvMRUwEwYDVQQKEwxGb3J0LUZ1bnN0b24xGDAWBgNVBAMTD0ZvcnQtRnVu
c3RvbiBDQTEhMB8GCSqGSIb3DQEJARYSbWVAbXlob3N0Lm15ZG9tYWluggkAt0/N
bI18HCUwEwYDVR0lBAwwCgYIKwYBBQUHAwIwCwYDVR0PBAQDAgeAMA0GCSqGSIb3
DQEBBQUAA4GBAErU1fedL9pFpwC+t8KtD72qr/oAV+Mcc+hWiQEAx4YdHNapePG7
tfwuCv17eSmgjSvOk3HZO5PPHUwcKgBBx3Y11e8jAIJYFbx1fTGYOvjxAK549OA0
X1PARiffoVTvxBIdRo7gaMxN3gLE1RIoTysFMxV1FF6Udj4qIGeXpp1P
-----END CERTIFICATE-----
